target datalayout = "e-m:e-p270:32:32-p271:32:32-p272:64:64-i64:64-i128:128-f80:128-n8:16:32:64-S128"
target triple = "x86_64-pc-linux-gnu"

; Function Attrs: inlinehint mustprogress nounwind uwtable
define linkonce_odr noundef nofpclass(nan inf) float @_ZSt5floorf(float noundef nofpclass(nan inf) %0) #1 comdat {
  %2 = alloca float, align 4
  store float %0, ptr %2, align 4, !tbaa !57
  %3 = load float, ptr %2, align 4, !tbaa !57
  %4 = call fast float @llvm.floor.f32(float %3)
  ret float %4
}

; Function Attrs: mustprogress uwtable
define internal void @_ZN4ncnnL13linear_coeffsEiiPiPfi(i32 noundef %0, i32 noundef %1, ptr noundef %2, ptr noundef %3, i32 noundef %4) #2 {
  %6 = alloca i32, align 4
  %7 = alloca i32, align 4
  %8 = alloca ptr, align 8
  %9 = alloca ptr, align 8
  %10 = alloca i32, align 4
  %11 = alloca double, align 8
  %12 = alloca i32, align 4
  %13 = alloca float, align 4
  %14 = alloca i32, align 4
  store i32 %0, ptr %6, align 4, !tbaa !48
  store i32 %1, ptr %7, align 4, !tbaa !48
  store ptr %2, ptr %8, align 8, !tbaa !58
  store ptr %3, ptr %9, align 8, !tbaa !59
  store i32 %4, ptr %10, align 4, !tbaa !48
  call void @llvm.lifetime.start.p0(i64 8, ptr %11) #15
  %15 = load i32, ptr %6, align 4, !tbaa !48
  %16 = sitofp i32 %15 to double
  %17 = load i32, ptr %7, align 4, !tbaa !48
  %18 = sitofp i32 %17 to double
  %19 = fdiv fast double %16, %18
  store double %19, ptr %11, align 8, !tbaa !94
  %20 = load i32, ptr %10, align 4, !tbaa !48
  %21 = icmp ne i32 %20, 0
  br i1 %21, label %22, label %30

22:                                               ; preds = %5
  %23 = load i32, ptr %6, align 4, !tbaa !48
  %24 = sub nsw i32 %23, 1
  %25 = sitofp i32 %24 to double
  %26 = load i32, ptr %7, align 4, !tbaa !48
  %27 = sub nsw i32 %26, 1
  %28 = sitofp i32 %27 to double
  %29 = fdiv fast double %25, %28
  store double %29, ptr %11, align 8, !tbaa !94
  br label %30

30:                                               ; preds = %22, %5
  call void @llvm.lifetime.start.p0(i64 4, ptr %12) #15
  store i32 0, ptr %12, align 4, !tbaa !48
  br label %31

31:                                               ; preds = %91, %30
  %32 = load i32, ptr %12, align 4, !tbaa !48
  %33 = load i32, ptr %7, align 4, !tbaa !48
  %34 = icmp slt i32 %32, %33
  br i1 %34, label %36, label %35

35:                                               ; preds = %31
  call void @llvm.lifetime.end.p0(i64 4, ptr %12) #15
  br label %94

36:                                               ; preds = %31
  call void @llvm.lifetime.start.p0(i64 4, ptr %13) #15
  %37 = load i32, ptr %12, align 4, !tbaa !48
  %38 = sitofp i32 %37 to double
  %39 = fadd fast double %38, 5.000000e-01
  %40 = load double, ptr %11, align 8, !tbaa !94
  %41 = fmul fast double %39, %40
  %42 = fsub fast double %41, 5.000000e-01
  %43 = fptrunc fast double %42 to float
  store float %43, ptr %13, align 4, !tbaa !57
  %44 = load i32, ptr %10, align 4, !tbaa !48
  %45 = icmp ne i32 %44, 0
  br i1 %45, label %46, label %52

46:                                               ; preds = %36
  %47 = load i32, ptr %12, align 4, !tbaa !48
  %48 = sitofp i32 %47 to double
  %49 = load double, ptr %11, align 8, !tbaa !94
  %50 = fmul fast double %48, %49
  %51 = fptrunc fast double %50 to float
  store float %51, ptr %13, align 4, !tbaa !57
  br label %52

52:                                               ; preds = %46, %36
  call void @llvm.lifetime.start.p0(i64 4, ptr %14) #15
  %53 = load float, ptr %13, align 4, !tbaa !57
  %54 = call fast noundef nofpclass(nan inf) float @_ZSt5floorf(float noundef nofpclass(nan inf) %53)
  %55 = fptosi float %54 to i32
  store i32 %55, ptr %14, align 4, !tbaa !48
  %56 = load i32, ptr %14, align 4, !tbaa !48
  %57 = sitofp i32 %56 to float
  %58 = load float, ptr %13, align 4, !tbaa !57
  %59 = fsub fast float %58, %57
  store float %59, ptr %13, align 4, !tbaa !57
  %60 = load i32, ptr %14, align 4, !tbaa !48
  %61 = icmp slt i32 %60, 0
  br i1 %61, label %62, label %63

62:                                               ; preds = %52
  store i32 0, ptr %14, align 4, !tbaa !48
  store float 0.000000e+00, ptr %13, align 4, !tbaa !57
  br label %63

63:                                               ; preds = %62, %52
  %64 = load i32, ptr %14, align 4, !tbaa !48
  %65 = load i32, ptr %6, align 4, !tbaa !48
  %66 = sub nsw i32 %65, 1
  %67 = icmp sge i32 %64, %66
  br i1 %67, label %68, label %71

68:                                               ; preds = %63
  %69 = load i32, ptr %6, align 4, !tbaa !48
  %70 = sub nsw i32 %69, 2
  store i32 %70, ptr %14, align 4, !tbaa !48
  store float 1.000000e+00, ptr %13, align 4, !tbaa !57
  br label %71

71:                                               ; preds = %68, %63
  %72 = load i32, ptr %14, align 4, !tbaa !48
  %73 = load ptr, ptr %8, align 8, !tbaa !58
  %74 = load i32, ptr %12, align 4, !tbaa !48
  %75 = sext i32 %74 to i64
  %76 = getelementptr inbounds i32, ptr %73, i64 %75
  store i32 %72, ptr %76, align 4, !tbaa !48
  %77 = load float, ptr %13, align 4, !tbaa !57
  %78 = fsub fast float 1.000000e+00, %77
  %79 = load ptr, ptr %9, align 8, !tbaa !59
  %80 = load i32, ptr %12, align 4, !tbaa !48
  %81 = mul nsw i32 %80, 2
  %82 = sext i32 %81 to i64
  %83 = getelementptr inbounds float, ptr %79, i64 %82
  store float %78, ptr %83, align 4, !tbaa !57
  %84 = load float, ptr %13, align 4, !tbaa !57
  %85 = load ptr, ptr %9, align 8, !tbaa !59
  %86 = load i32, ptr %12, align 4, !tbaa !48
  %87 = mul nsw i32 %86, 2
  %88 = add nsw i32 %87, 1
  %89 = sext i32 %88 to i64
  %90 = getelementptr inbounds float, ptr %85, i64 %89
  store float %84, ptr %90, align 4, !tbaa !57
  call void @llvm.lifetime.end.p0(i64 4, ptr %14) #15
  call void @llvm.lifetime.end.p0(i64 4, ptr %13) #15
  br label %91

91:                                               ; preds = %71
  %92 = load i32, ptr %12, align 4, !tbaa !48
  %93 = add nsw i32 %92, 1
  store i32 %93, ptr %12, align 4, !tbaa !48
  br label %31, !llvm.loop !96

94:                                               ; preds = %35
  call void @llvm.lifetime.end.p0(i64 8, ptr %11) #15
  ret void
}